(dp0
S'start'
p1
ccopy_reg
_reconstructor
p2
(cgeometry_msgs.msg._PoseWithCovarianceStamped
PoseWithCovarianceStamped
p3
c__builtin__
object
p4
Ntp5
Rp6
(lp7
g2
(cstd_msgs.msg._Header
Header
p8
g4
Ntp9
Rp10
(lp11
I4
ag2
(cgenpy.rostime
Time
p12
g4
Ntp13
Rp14
(lp15
I21
aI830000000
abaS'map'
p16
abag2
(cgeometry_msgs.msg._PoseWithCovariance
PoseWithCovariance
p17
g4
Ntp18
Rp19
(lp20
g2
(cgeometry_msgs.msg._Pose
Pose
p21
g4
Ntp22
Rp23
(lp24
g2
(cgeometry_msgs.msg._Point
Point
p25
g4
Ntp26
Rp27
(lp28
F0.0053276420639235145
aF0.01084965599183545
aF0.0
abag2
(cgeometry_msgs.msg._Quaternion
Quaternion
p29
g4
Ntp30
Rp31
(lp32
F0.0
aF0.0
aF0.0008696982223221679
aF0.9999996218124295
ababa(F0.2361499860964596
F0.0007533721916314348
F0.0
F0.0
F0.0
F0.0
F0.0007533721916314341
F0.24403000924549967
F0.0
F0.0
F0.0
F0.0
F0.0
F0.0
F0.0
F0.0
F0.0
F0.0
F0.0
F0.0
F0.0
F0.0
F0.0
F0.0
F0.0
F0.0
F0.0
F0.0
F0.0
F0.0
F0.0
F0.0
F0.0
F0.0
F0.0
F0.07017381955854368
tp33
ababsS'green_room'
p34
g2
(g3
g4
Ntp35
Rp36
(lp37
g2
(g8
g4
Ntp38
Rp39
(lp40
I264
ag2
(g12
g4
Ntp41
Rp42
(lp43
I912
aI370000000
abaS'map'
p44
abag2
(g17
g4
Ntp45
Rp46
(lp47
g2
(g21
g4
Ntp48
Rp49
(lp50
g2
(g25
g4
Ntp51
Rp52
(lp53
F-3.6147631983753556
aF-3.1469716600711006
aF0.0
abag2
(g29
g4
Ntp54
Rp55
(lp56
F0.0
aF0.0
aF-0.2859041822908927
aF0.9582582107911082
ababa(F0.02504907584085103
F-0.010508590176298682
F0.0
F0.0
F0.0
F0.0
F-0.010508590176298682
F0.014123772448837002
F0.0
F0.0
F0.0
F0.0
F0.0
F0.0
F0.0
F0.0
F0.0
F0.0
F0.0
F0.0
F0.0
F0.0
F0.0
F0.0
F0.0
F0.0
F0.0
F0.0
F0.0
F0.0
F0.0
F0.0
F0.0
F0.0
F0.0
F0.0230740714851746
tp57
ababsS'main_table'
p58
g2
(g3
g4
Ntp59
Rp60
(lp61
g2
(g8
g4
Ntp62
Rp63
(lp64
I2
ag2
(g12
g4
Ntp65
Rp66
(lp67
I177
aI744000000
abaS'map'
p68
abag2
(g17
g4
Ntp69
Rp70
(lp71
g2
(g21
g4
Ntp72
Rp73
(lp74
g2
(g25
g4
Ntp75
Rp76
(lp77
F3.028464473597098
aF3.0000113425245907
aF0.0
abag2
(g29
g4
Ntp78
Rp79
(lp80
F0.0
aF0.0
aF0.00657893818144261
aF0.9999783585520262
ababa(F0.02186632191905602
F0.0022120350503307407
F0.0
F0.0
F0.0
F0.0
F0.0022120350503307407
F0.007714854304920138
F0.0
F0.0
F0.0
F0.0
F0.0
F0.0
F0.0
F0.0
F0.0
F0.0
F0.0
F0.0
F0.0
F0.0
F0.0
F0.0
F0.0
F0.0
F0.0
F0.0
F0.0
F0.0
F0.0
F0.0
F0.0
F0.0
F0.0
F0.013124094196245554
tp81
ababsS'orange_table'
p82
g2
(g3
g4
Ntp83
Rp84
(lp85
g2
(g8
g4
Ntp86
Rp87
(lp88
I171
ag2
(g12
g4
Ntp89
Rp90
(lp91
I781
aI640000000
abaS'map'
p92
abag2
(g17
g4
Ntp93
Rp94
(lp95
g2
(g21
g4
Ntp96
Rp97
(lp98
g2
(g25
g4
Ntp99
Rp100
(lp101
F-3.1715315438027116
aF4.161269226170554
aF0.0
abag2
(g29
g4
Ntp102
Rp103
(lp104
F0.0
aF0.0
aF0.7231584929035476
aF0.6906821223554795
ababa(F0.008285152970318066
F-0.0011650578143918011
F0.0
F0.0
F0.0
F0.0
F-0.0011650578143953538
F0.04312255016512978
F0.0
F0.0
F0.0
F0.0
F0.0
F0.0
F0.0
F0.0
F0.0
F0.0
F0.0
F0.0
F0.0
F0.0
F0.0
F0.0
F0.0
F0.0
F0.0
F0.0
F0.0
F0.0
F0.0
F0.0
F0.0
F0.0
F0.0
F0.035079764674849565
tp105
ababs.